; Function Attrs: mustprogress nounwind uwtable
define internal fastcc void @_ZN6hermes6ESTree24RecursiveVisitorDispatchINS_3sem12_GLOBAL__N_127BlockScopingTransformationsELb0EE13visitChildrenERS4_PNS0_17ClassPropertyNodeE(ptr noundef nonnull align 8 dereferenceable(72) %v, ptr noundef readonly captures(none) %node) unnamed_addr #0 align 2 {
entry:
  %_key = getelementptr inbounds nuw i8, ptr %node, i64 48
  %0 = load ptr, ptr %_key, align 8
  %1 = tail call fastcc { ptr, i8 } @_ZN6hermes6ESTree24RecursiveVisitorDispatchINS_3sem12_GLOBAL__N_127BlockScopingTransformationsELb0EE5visitERS4_PNS0_4NodeES8_(ptr noundef nonnull align 8 dereferenceable(72) %v, ptr noundef %0)
  %_value = getelementptr inbounds nuw i8, ptr %node, i64 56
  %2 = load ptr, ptr %_value, align 8
  %3 = tail call fastcc { ptr, i8 } @_ZN6hermes6ESTree24RecursiveVisitorDispatchINS_3sem12_GLOBAL__N_127BlockScopingTransformationsELb0EE5visitERS4_PNS0_4NodeES8_(ptr noundef nonnull align 8 dereferenceable(72) %v, ptr noundef %2)
  %_variance = getelementptr inbounds nuw i8, ptr %node, i64 72
  %4 = load ptr, ptr %_variance, align 8
  %5 = tail call fastcc { ptr, i8 } @_ZN6hermes6ESTree24RecursiveVisitorDispatchINS_3sem12_GLOBAL__N_127BlockScopingTransformationsELb0EE5visitERS4_PNS0_4NodeES8_(ptr noundef nonnull align 8 dereferenceable(72) %v, ptr noundef %4)
  %_typeAnnotation = getelementptr inbounds nuw i8, ptr %node, i64 80
  %6 = load ptr, ptr %_typeAnnotation, align 8
  %7 = tail call fastcc { ptr, i8 } @_ZN6hermes6ESTree24RecursiveVisitorDispatchINS_3sem12_GLOBAL__N_127BlockScopingTransformationsELb0EE5visitERS4_PNS0_4NodeES8_(ptr noundef nonnull align 8 dereferenceable(72) %v, ptr noundef %6)
  %_tsModifiers = getelementptr inbounds nuw i8, ptr %node, i64 88
  %8 = load ptr, ptr %_tsModifiers, align 8
  %9 = tail call fastcc { ptr, i8 } @_ZN6hermes6ESTree24RecursiveVisitorDispatchINS_3sem12_GLOBAL__N_127BlockScopingTransformationsELb0EE5visitERS4_PNS0_4NodeES8_(ptr noundef nonnull align 8 dereferenceable(72) %v, ptr noundef %8)
  ret void
}